Certificate:
    Data:
        Version: 3 (0x2)
        Serial Number:
            67:5d:24:de:c0:79:7e:fb:2c:99:05:16:79:02:53:5c
        Signature Algorithm: sha256WithRSAEncryption
        Issuer: CN=kevin_openvpn
        Validity
            Not Before: Sep  1 21:59:44 2021 GMT
            Not After : Dec  5 21:59:44 2023 GMT
        Subject: CN=171.244.139.40
        Subject Public Key Info:
            Public Key Algorithm: rsaEncryption
                RSA Public-Key: (2048 bit)
                Modulus:
                    00:ba:6c:65:19:6b:8f:ae:93:2d:02:50:16:ce:3d:
                    b1:4d:e4:a0:15:f8:10:be:89:fe:7e:df:2e:80:c7:
                    08:12:83:de:13:10:38:b6:f8:5b:a1:96:6c:09:5c:
                    41:90:7d:07:17:3c:3e:d3:7e:f3:b7:98:71:74:f8:
                    f6:62:37:1d:95:d1:c0:32:8e:28:fd:c6:20:af:bc:
                    01:93:1b:89:d9:48:25:16:60:b8:18:2b:fe:1b:5d:
                    b7:33:52:67:e0:67:a6:0f:8c:a5:b8:58:20:95:a9:
                    7a:c1:c8:68:af:ac:04:3f:8d:77:9b:af:9c:08:6f:
                    e0:3c:1e:da:e8:55:ca:27:ed:13:1e:9d:a7:47:b0:
                    36:f0:44:46:e8:b5:33:7b:37:5f:68:68:9f:70:92:
                    e4:13:0c:86:10:dd:5a:38:f8:de:07:3e:a3:50:e9:
                    3d:15:3d:39:72:8c:40:41:fb:e2:69:53:c3:2a:9a:
                    96:32:6e:4f:61:e3:21:2d:0c:28:a6:8e:62:b7:33:
                    fc:c7:85:ac:c5:14:67:0d:fe:45:06:72:f8:68:86:
                    a7:51:17:ef:cc:c1:c9:b7:3a:43:b4:08:e0:52:97:
                    3e:a8:82:3a:58:dd:8d:c3:04:88:e6:22:11:08:54:
                    5b:74:83:98:38:d6:c5:b3:a1:b6:68:48:f9:32:70:
                    f1:e3
                Exponent: 65537 (0x10001)
        X509v3 extensions:
            X509v3 Basic Constraints: 
                CA:FALSE
            X509v3 Subject Key Identifier: 
                DE:04:4A:45:E0:ED:05:80:CE:D7:0F:EF:4C:0E:3B:A3:E7:6E:43:1C
            X509v3 Authority Key Identifier: 
                keyid:57:C2:74:08:BD:D6:09:11:AB:DE:9E:91:B0:86:3C:49:FB:92:9B:86
                DirName:/CN=kevin_openvpn
                serial:6E:00:BF:AF:50:8D:CE:EB:94:CA:C8:9C:A2:72:F2:02:25:6A:9F:AB

            X509v3 Extended Key Usage: 
                TLS Web Server Authentication
            X509v3 Key Usage: 
                Digital Signature, Key Encipherment
            X509v3 Subject Alternative Name: 
                IP Address:171.244.139.40
    Signature Algorithm: sha256WithRSAEncryption
         94:fc:5a:2b:18:4c:d1:06:ea:8d:ba:60:f6:13:cd:83:a8:72:
         f2:25:c2:34:7a:57:09:fd:27:78:08:01:25:3f:32:0f:44:77:
         34:46:07:e7:61:c7:ea:52:91:52:6f:84:af:c1:59:31:fd:28:
         d3:60:ec:ad:a9:f5:be:14:6a:84:2e:4f:97:13:9c:86:26:f5:
         3c:14:5a:68:5d:1f:91:9d:bc:6b:ca:73:4d:d2:43:93:2e:8a:
         18:f6:c5:77:5f:ea:44:d2:39:c6:72:57:29:95:92:6b:61:cf:
         55:36:94:8b:b7:d8:fe:28:be:68:44:70:81:cf:2b:52:51:ab:
         ae:27:82:6f:96:69:63:6c:ae:d7:7c:03:59:02:ab:bc:b0:5c:
         5c:85:fa:b9:d9:06:5b:6e:bd:b6:22:c6:4d:f1:70:4e:92:db:
         9a:10:6c:93:ee:e6:58:eb:01:62:f8:e7:20:c5:d8:17:13:f2:
         a2:eb:23:30:16:37:96:21:2e:9a:6e:db:a6:b2:0d:22:13:0d:
         1c:d1:fe:39:2d:bc:5a:03:ac:2f:a9:5d:6f:0f:c8:14:ff:ea:
         5d:38:3c:df:97:5e:a8:03:18:ad:a7:bf:14:dd:2c:0f:0a:d4:
         ea:ce:a4:7b:43:e8:91:02:e1:75:aa:89:a7:0a:c4:f7:b0:89:
         40:73:03:cf
-----BEGIN CERTIFICATE-----
MIIDcTCCAlmgAwIBAgIQZ10k3sB5fvssmQUWeQJTXDANBgkqhkiG9w0BAQsFADAY
MRYwFAYDVQQDDA1rZXZpbl9vcGVudnBuMB4XDTIxMDkwMTIxNTk0NFoXDTIzMTIw
NTIxNTk0NFowGTEXMBUGA1UEAwwOMTcxLjI0NC4xMzkuNDAwggEiMA0GCSqGSIb3
DQEBAQUAA4IBDwAwggEKAoIBAQC6bGUZa4+uky0CUBbOPbFN5KAV+BC+if5+3y6A
xwgSg94TEDi2+FuhlmwJXEGQfQcXPD7TfvO3mHF0+PZiNx2V0cAyjij9xiCvvAGT
G4nZSCUWYLgYK/4bXbczUmfgZ6YPjKW4WCCVqXrByGivrAQ/jXebr5wIb+A8Htro
Vcon7RMenadHsDbwREbotTN7N19oaJ9wkuQTDIYQ3Vo4+N4HPqNQ6T0VPTlyjEBB
++JpU8MqmpYybk9h4yEtDCimjmK3M/zHhazFFGcN/kUGcvhohqdRF+/Mwcm3OkO0
COBSlz6ogjpY3Y3DBIjmIhEIVFt0g5g41sWzobZoSPkycPHjAgMBAAGjgbUwgbIw
CQYDVR0TBAIwADAdBgNVHQ4EFgQU3gRKReDtBYDO1w/vTA47o+duQxwwUwYDVR0j
BEwwSoAUV8J0CL3WCRGr3p6RsIY8SfuSm4ahHKQaMBgxFjAUBgNVBAMMDWtldmlu
X29wZW52cG6CFG4Av69Qjc7rlMrInKJy8gIlap+rMBMGA1UdJQQMMAoGCCsGAQUF
BwMBMAsGA1UdDwQEAwIFoDAPBgNVHREECDAGhwSr9IsoMA0GCSqGSIb3DQEBCwUA
A4IBAQCU/ForGEzRBuqNumD2E82DqHLyJcI0elcJ/Sd4CAElPzIPRHc0RgfnYcfq
UpFSb4SvwVkx/SjTYOytqfW+FGqELk+XE5yGJvU8FFpoXR+RnbxrynNN0kOTLooY
9sV3X+pE0jnGclcplZJrYc9VNpSLt9j+KL5oRHCBzytSUauuJ4JvlmljbK7XfANZ
Aqu8sFxchfq52QZbbr22IsZN8XBOktuaEGyT7uZY6wFi+OcgxdgXE/Ki6yMwFjeW
IS6abtumsg0iEw0c0f45LbxaA6wvqV1vD8gU/+pdODzfl16oAxitp78U3SwPCtTq
zqR7Q+iRAuF1qomnCsT3sIlAcwPP
-----END CERTIFICATE-----
