Certificate:
    Data:
        Version: 3 (0x2)
        Serial Number:
            71:c7:f6:49:f9:0c:7d:89:e7:c8:68:2a:d1:27:38:fb
        Signature Algorithm: sha256WithRSAEncryption
        Issuer: CN=kevin_openvpn
        Validity
            Not Before: Sep  1 22:32:08 2021 GMT
            Not After : Dec  5 22:32:08 2023 GMT
        Subject: CN=minote3
        Subject Public Key Info:
            Public Key Algorithm: rsaEncryption
                RSA Public-Key: (2048 bit)
                Modulus:
                    00:c0:ba:01:4c:49:d2:f1:40:e4:7f:fe:6d:7f:d1:
                    36:31:34:84:2c:18:ea:99:e1:68:ad:0b:3f:f8:25:
                    ac:5b:9a:d6:82:1d:17:1f:25:13:bf:7b:d2:1d:14:
                    67:eb:7c:c4:81:76:37:02:1e:cc:4b:56:db:56:cb:
                    85:73:ed:51:f1:40:a2:86:28:0a:0d:81:05:84:93:
                    d3:65:85:b5:34:e5:89:d2:5c:b7:c0:9e:a3:d7:ca:
                    04:8f:60:df:6d:ec:3c:be:34:87:6c:0c:2b:4a:eb:
                    83:a2:cc:e8:ae:96:bf:85:ea:41:a8:14:6d:03:f7:
                    cd:99:0a:6a:35:00:3f:be:26:3e:58:2c:6e:57:32:
                    be:b6:c1:1e:c6:bc:88:79:db:80:26:b1:20:19:13:
                    3b:ca:0c:e3:6e:c6:55:6d:f0:f6:a8:ff:f4:f7:e2:
                    d6:e1:0f:70:dc:8b:0a:45:a2:70:c8:79:c7:6f:c2:
                    27:0c:11:48:cf:06:79:b4:f2:bc:84:23:28:9b:84:
                    51:47:2a:d3:ec:7e:12:dd:15:d7:2b:ab:55:38:ce:
                    27:d6:4b:7c:6e:e6:63:a0:78:54:78:2a:42:10:4f:
                    d0:bf:a8:eb:9b:8c:3a:5a:15:74:5b:57:ea:45:98:
                    62:03:ef:0a:2e:04:e5:1d:fb:f5:1b:ad:91:03:2e:
                    2d:39
                Exponent: 65537 (0x10001)
        X509v3 extensions:
            X509v3 Basic Constraints: 
                CA:FALSE
            X509v3 Subject Key Identifier: 
                6B:3F:E8:E8:89:C0:D3:5F:C9:D6:1D:E5:CE:6C:4F:CA:98:D4:41:28
            X509v3 Authority Key Identifier: 
                keyid:57:C2:74:08:BD:D6:09:11:AB:DE:9E:91:B0:86:3C:49:FB:92:9B:86
                DirName:/CN=kevin_openvpn
                serial:6E:00:BF:AF:50:8D:CE:EB:94:CA:C8:9C:A2:72:F2:02:25:6A:9F:AB

            X509v3 Extended Key Usage: 
                TLS Web Client Authentication
            X509v3 Key Usage: 
                Digital Signature
    Signature Algorithm: sha256WithRSAEncryption
         08:90:4c:12:cf:b9:c9:79:5f:1b:84:c5:8d:38:a1:3f:27:82:
         68:f3:d4:c2:fc:e8:e1:ea:e6:f4:52:43:ae:60:e3:10:77:5e:
         97:af:13:0e:71:8e:4a:35:4b:47:cf:0e:6b:02:32:49:a0:41:
         ff:53:b8:6e:63:56:60:30:25:3c:6c:eb:b1:d4:e5:0a:f2:45:
         70:d4:ae:e0:62:be:a3:62:aa:9c:bf:1c:0a:34:ec:be:b6:45:
         1b:dc:14:23:63:7a:b5:c7:fd:0f:98:19:bb:43:04:5e:ea:3e:
         27:4c:b2:be:f1:96:89:76:4e:3b:99:28:f9:bf:ff:52:99:2e:
         8e:f3:a7:0a:fc:72:3b:11:0e:21:cd:b4:42:91:f5:e1:e5:ca:
         45:5d:c1:ef:bf:d4:e9:c5:27:8b:17:9c:6a:6a:19:f0:7a:46:
         54:bd:5e:6e:b1:a6:d9:05:ff:7a:00:d9:ff:7a:86:ff:ca:20:
         06:ee:76:c2:86:5f:62:f0:6c:58:5b:33:c1:12:cb:6e:c6:df:
         b9:b4:c4:6b:a4:67:ae:66:0c:2f:b1:88:82:e3:d4:f6:c0:15:
         70:ef:b4:df:99:c5:61:f0:15:26:72:98:13:28:aa:96:12:a1:
         ef:e7:c0:06:51:f1:11:e1:eb:6c:27:dc:17:a4:63:a3:99:8b:
         87:a5:e0:69
-----BEGIN CERTIFICATE-----
MIIDWTCCAkGgAwIBAgIQccf2SfkMfYnnyGgq0Sc4+zANBgkqhkiG9w0BAQsFADAY
MRYwFAYDVQQDDA1rZXZpbl9vcGVudnBuMB4XDTIxMDkwMTIyMzIwOFoXDTIzMTIw
NTIyMzIwOFowEjEQMA4GA1UEAwwHbWlub3RlMzCCASIwDQYJKoZIhvcNAQEBBQAD
ggEPADCCAQoCggEBAMC6AUxJ0vFA5H/+bX/RNjE0hCwY6pnhaK0LP/glrFua1oId
Fx8lE7970h0UZ+t8xIF2NwIezEtW21bLhXPtUfFAooYoCg2BBYST02WFtTTlidJc
t8Ceo9fKBI9g323sPL40h2wMK0rrg6LM6K6Wv4XqQagUbQP3zZkKajUAP74mPlgs
blcyvrbBHsa8iHnbgCaxIBkTO8oM427GVW3w9qj/9Pfi1uEPcNyLCkWicMh5x2/C
JwwRSM8GebTyvIQjKJuEUUcq0+x+Et0V1yurVTjOJ9ZLfG7mY6B4VHgqQhBP0L+o
65uMOloVdFtX6kWYYgPvCi4E5R379RutkQMuLTkCAwEAAaOBpDCBoTAJBgNVHRME
AjAAMB0GA1UdDgQWBBRrP+joicDTX8nWHeXObE/KmNRBKDBTBgNVHSMETDBKgBRX
wnQIvdYJEavenpGwhjxJ+5KbhqEcpBowGDEWMBQGA1UEAwwNa2V2aW5fb3BlbnZw
boIUbgC/r1CNzuuUysiconLyAiVqn6swEwYDVR0lBAwwCgYIKwYBBQUHAwIwCwYD
VR0PBAQDAgeAMA0GCSqGSIb3DQEBCwUAA4IBAQAIkEwSz7nJeV8bhMWNOKE/J4Jo
89TC/Ojh6ub0UkOuYOMQd16XrxMOcY5KNUtHzw5rAjJJoEH/U7huY1ZgMCU8bOux
1OUK8kVw1K7gYr6jYqqcvxwKNOy+tkUb3BQjY3q1x/0PmBm7QwRe6j4nTLK+8ZaJ
dk47mSj5v/9SmS6O86cK/HI7EQ4hzbRCkfXh5cpFXcHvv9TpxSeLF5xqahnwekZU
vV5usabZBf96ANn/eob/yiAG7nbChl9i8GxYWzPBEstuxt+5tMRrpGeuZgwvsYiC
49T2wBVw77TfmcVh8BUmcpgTKKqWEqHv58AGUfER4etsJ9wXpGOjmYuHpeBp
-----END CERTIFICATE-----
