Certificate:
    Data:
        Version: 3 (0x2)
        Serial Number:
            8c:4b:08:64:5d:6c:f0:2e:e9:fe:43:51:c8:0d:4a:8e
        Signature Algorithm: sha256WithRSAEncryption
        Issuer: CN=kevin_openvpn
        Validity
            Not Before: Sep  1 22:32:26 2021 GMT
            Not After : Dec  5 22:32:26 2023 GMT
        Subject: CN=minote3pro
        Subject Public Key Info:
            Public Key Algorithm: rsaEncryption
                RSA Public-Key: (2048 bit)
                Modulus:
                    00:df:4d:2a:01:67:56:1c:bb:98:77:a1:83:cc:21:
                    12:49:3d:f2:5b:60:57:6d:33:a4:ff:13:87:b2:6e:
                    17:89:3f:4a:c9:0c:b6:a8:8d:1c:fb:24:1f:aa:19:
                    12:6e:dc:09:d6:2a:42:be:9d:b4:08:98:20:24:2c:
                    d1:3e:d3:69:d0:f5:75:8c:c9:e3:61:17:56:7b:98:
                    41:bd:a4:7d:36:78:9f:71:ad:f1:38:bd:83:08:a8:
                    4f:0f:62:c9:52:05:1f:0c:e2:77:87:38:b7:47:a0:
                    18:40:f2:21:20:8d:b0:4a:8a:f7:7f:69:8e:48:9c:
                    13:e6:42:d3:b5:9e:a6:50:06:55:8b:ca:72:63:73:
                    dc:3e:e8:18:fb:b5:49:21:e8:8a:55:74:f0:fd:80:
                    b5:a6:25:ec:44:6c:9d:c4:f0:47:fe:4a:14:24:e0:
                    94:f5:04:3c:e9:73:e3:97:bc:df:4c:53:c0:19:ab:
                    1e:77:d7:e7:be:c3:88:df:21:06:fd:ae:c5:8d:35:
                    7c:55:b7:51:58:15:40:85:e0:f2:7a:8e:6d:59:7e:
                    1a:3a:b7:88:ce:ea:b2:ab:61:08:05:4e:80:1a:04:
                    db:a2:d4:22:a8:4a:de:ff:da:0a:dc:7f:66:b8:a5:
                    82:25:9c:82:0b:7c:6e:be:87:0e:f6:20:a7:b2:da:
                    d0:b9
                Exponent: 65537 (0x10001)
        X509v3 extensions:
            X509v3 Basic Constraints: 
                CA:FALSE
            X509v3 Subject Key Identifier: 
                DE:BB:B4:92:94:AF:E6:46:35:5C:73:5C:0B:A8:FE:45:75:D2:D6:F2
            X509v3 Authority Key Identifier: 
                keyid:57:C2:74:08:BD:D6:09:11:AB:DE:9E:91:B0:86:3C:49:FB:92:9B:86
                DirName:/CN=kevin_openvpn
                serial:6E:00:BF:AF:50:8D:CE:EB:94:CA:C8:9C:A2:72:F2:02:25:6A:9F:AB

            X509v3 Extended Key Usage: 
                TLS Web Client Authentication
            X509v3 Key Usage: 
                Digital Signature
    Signature Algorithm: sha256WithRSAEncryption
         bd:9a:e8:27:94:27:bd:d2:a2:1e:c7:db:8c:87:2b:4a:67:b2:
         b2:eb:1d:7f:a7:61:98:d9:43:47:a1:ad:73:b9:5e:27:3c:13:
         ad:39:a0:4f:58:74:bb:76:18:fc:05:f5:c3:38:6b:c3:2e:a6:
         dd:32:77:08:d2:64:34:1c:0e:13:6b:a0:a9:4a:53:46:9f:fd:
         22:5b:ff:91:1e:f1:77:f7:78:32:ff:11:54:d5:1a:a6:6e:ed:
         1a:34:a4:89:14:9f:e2:b1:20:22:69:b0:1c:ff:f2:c7:fd:71:
         9f:b7:0b:8e:86:5b:bc:a5:0c:9d:a9:e4:30:ec:c6:ac:c2:43:
         f0:5c:1e:e3:04:a5:d7:fb:06:87:c6:9e:cc:98:fa:9c:a6:bb:
         dc:22:7c:c0:4c:7f:d3:b7:d3:7f:4f:f9:5a:ba:4e:1b:18:52:
         b8:92:39:08:44:fa:01:7f:74:85:a3:81:ea:0d:cc:2e:27:e9:
         37:29:cf:6f:df:ff:9d:a3:ea:7e:aa:b5:38:57:38:c6:ef:a7:
         3d:61:78:d6:ed:0b:79:26:28:ef:cc:f7:41:24:84:b2:59:8f:
         04:b3:ef:4b:e0:32:98:5b:c4:0c:e8:99:54:48:f2:21:63:3f:
         24:5a:71:99:4c:de:2b:4f:eb:7a:63:31:8a:80:97:df:5f:03:
         32:19:1b:36
-----BEGIN CERTIFICATE-----
MIIDXTCCAkWgAwIBAgIRAIxLCGRdbPAu6f5DUcgNSo4wDQYJKoZIhvcNAQELBQAw
GDEWMBQGA1UEAwwNa2V2aW5fb3BlbnZwbjAeFw0yMTA5MDEyMjMyMjZaFw0yMzEy
MDUyMjMyMjZaMBUxEzARBgNVBAMMCm1pbm90ZTNwcm8wggEiMA0GCSqGSIb3DQEB
AQUAA4IBDwAwggEKAoIBAQDfTSoBZ1Ycu5h3oYPMIRJJPfJbYFdtM6T/E4eybheJ
P0rJDLaojRz7JB+qGRJu3AnWKkK+nbQImCAkLNE+02nQ9XWMyeNhF1Z7mEG9pH02
eJ9xrfE4vYMIqE8PYslSBR8M4neHOLdHoBhA8iEgjbBKivd/aY5InBPmQtO1nqZQ
BlWLynJjc9w+6Bj7tUkh6IpVdPD9gLWmJexEbJ3E8Ef+ShQk4JT1BDzpc+OXvN9M
U8AZqx531+e+w4jfIQb9rsWNNXxVt1FYFUCF4PJ6jm1Zfho6t4jO6rKrYQgFToAa
BNui1CKoSt7/2grcf2a4pYIlnIILfG6+hw72IKey2tC5AgMBAAGjgaQwgaEwCQYD
VR0TBAIwADAdBgNVHQ4EFgQU3ru0kpSv5kY1XHNcC6j+RXXS1vIwUwYDVR0jBEww
SoAUV8J0CL3WCRGr3p6RsIY8SfuSm4ahHKQaMBgxFjAUBgNVBAMMDWtldmluX29w
ZW52cG6CFG4Av69Qjc7rlMrInKJy8gIlap+rMBMGA1UdJQQMMAoGCCsGAQUFBwMC
MAsGA1UdDwQEAwIHgDANBgkqhkiG9w0BAQsFAAOCAQEAvZroJ5QnvdKiHsfbjIcr
Smeysusdf6dhmNlDR6Gtc7leJzwTrTmgT1h0u3YY/AX1wzhrwy6m3TJ3CNJkNBwO
E2ugqUpTRp/9Ilv/kR7xd/d4Mv8RVNUapm7tGjSkiRSf4rEgImmwHP/yx/1xn7cL
joZbvKUMnankMOzGrMJD8Fwe4wSl1/sGh8aezJj6nKa73CJ8wEx/07fTf0/5WrpO
GxhSuJI5CET6AX90haOB6g3MLifpNynPb9//naPqfqq1OFc4xu+nPWF41u0LeSYo
78z3QSSEslmPBLPvS+AymFvEDOiZVEjyIWM/JFpxmUzeK0/remMxioCX318DMhkb
Ng==
-----END CERTIFICATE-----
